target datalayout = "e-m:e-p270:32:32-p271:32:32-p272:64:64-i64:64-i128:128-f80:128-n8:16:32:64-S128"
target triple = "x86_64-pc-linux-gnu"

%"class.icu_77::ErrorCode" = type <{ ptr, i32, [4 x i8] }>
%"class.icu_77::IcuToolErrorCode" = type { %"class.icu_77::ErrorCode.base", ptr }
%"class.icu_77::ErrorCode.base" = type <{ ptr, i32 }>

@stderr = external global ptr, align 8
@.str = private unnamed_addr constant [17 x i8] c"error at %s: %s\0A\00", align 1

; Function Attrs: mustprogress uwtable
define void @_ZNK6icu_7716IcuToolErrorCode13handleFailureEv(ptr noundef nonnull align 8 dereferenceable(24) %0) unnamed_addr #1 align 2 {
  %2 = alloca ptr, align 8
  store ptr %0, ptr %2, align 8, !tbaa !3
  %3 = load ptr, ptr %2, align 8
  %4 = load ptr, ptr @stderr, align 8, !tbaa !15
  %5 = getelementptr inbounds nuw %"class.icu_77::IcuToolErrorCode", ptr %3, i32 0, i32 1
  %6 = load ptr, ptr %5, align 8, !tbaa !17
  %7 = call noundef ptr @_ZNK6icu_779ErrorCode9errorNameEv(ptr noundef nonnull align 8 dereferenceable(12) %3)
  %8 = call i32 (ptr, ptr, ...) @fprintf(ptr noundef %4, ptr noundef @.str, ptr noundef %6, ptr noundef %7) #14
  %9 = getelementptr inbounds nuw %"class.icu_77::ErrorCode", ptr %3, i32 0, i32 1
  %10 = load i32, ptr %9, align 8, !tbaa !12
  call void @exit(i32 noundef %10) #15
  unreachable
}