; Function Attrs: cold mustprogress noreturn uwtable
define void @_ZNK6icu_7716IcuToolErrorCode13handleFailureEv(ptr noundef nonnull align 8 dereferenceable(24) %0) unnamed_addr #4 align 2 {
  %2 = load ptr, ptr @stderr, align 8, !tbaa !10
  %3 = getelementptr inbounds nuw i8, ptr %0, i64 16
  %4 = load ptr, ptr %3, align 8, !tbaa !13
  %5 = tail call noundef ptr @_ZNK6icu_779ErrorCode9errorNameEv(ptr noundef nonnull align 8 dereferenceable(12) %0)
  %6 = tail call i32 (ptr, ptr, ...) @fprintf(ptr noundef %2, ptr noundef nonnull @.str, ptr noundef %4, ptr noundef %5) #25
  %7 = getelementptr inbounds nuw i8, ptr %0, i64 8
  %8 = load i32, ptr %7, align 8, !tbaa !6
  tail call void @exit(i32 noundef %8) #24
  unreachable
}